target datalayout = "e-m:e-p270:32:32-p271:32:32-p272:64:64-i64:64-i128:128-f80:128-n8:16:32:64-S128"
target triple = "x86_64-pc-linux-gnu"

%struct.emap_s = type { %struct.rtree_s }
%struct.rtree_s = type { ptr, %struct.malloc_mutex_s, [262144 x %struct.rtree_node_elm_s] }
%struct.malloc_mutex_s = type { %union.anon }
%union.anon = type { %struct.anon }
%struct.anon = type { %struct.mutex_prof_data_t, %union.pthread_mutex_t, %struct.atomic_b_t }
%struct.mutex_prof_data_t = type { %struct.nstime_t, %struct.nstime_t, i64, i64, i32, %struct.atomic_u32_t, i64, ptr, i64 }
%struct.nstime_t = type { i64 }
%struct.atomic_u32_t = type { i32 }
%union.pthread_mutex_t = type { %struct.__pthread_mutex_s }
%struct.__pthread_mutex_s = type { i32, i32, i32, i32, i32, i16, i16, %struct.__pthread_internal_list }
%struct.__pthread_internal_list = type { ptr, ptr }
%struct.atomic_b_t = type { i8 }
%struct.rtree_node_elm_s = type { %struct.atomic_p_t }
%struct.atomic_p_t = type { ptr }
%struct.rtree_ctx_s = type { [16 x %struct.rtree_ctx_cache_elm_s], [8 x %struct.rtree_ctx_cache_elm_s] }
%struct.rtree_ctx_cache_elm_s = type { i64, ptr }
%struct.edata_s = type { i64, ptr, %union.anon.1, ptr, i64, %union.anon.2, %union.anon.5 }
%union.anon.1 = type { i64 }
%union.anon.2 = type { %union.anon.4 }
%union.anon.4 = type { %struct.edata_heap_link_t }
%struct.edata_heap_link_t = type { %struct.phn_link_s }
%struct.phn_link_s = type { ptr, ptr, ptr }
%union.anon.5 = type { %struct.slab_data_s }
%struct.slab_data_s = type { [8 x i64] }
%struct.rtree_leaf_elm_s = type { %struct.atomic_p_t }
%struct.rtree_contents_s = type { ptr, %struct.rtree_metadata_s }
%struct.rtree_metadata_s = type { i32, i32, i8, i8 }
%struct.tsdn_s = type { %struct.tsd_s }
%struct.tsd_s = type { i8, i8, i64, i64, i64, i64, i64, i64, i64, i64, i64, i64, i64, i64, ptr, i64, i64, i64, ptr, ptr, %struct.ticker_geom_s, i8, %struct.tsd_binshards_s, %struct.tsd_link_t, i8, %struct.peak_s, %struct.activity_callback_thunk_s, %struct.tcache_slow_s, %struct.rtree_ctx_s, %struct.atomic_u8_t, i64, i64, i64, i64, %struct.tcache_s, %struct.witness_tsd_s }
%struct.ticker_geom_s = type { i32, i32 }
%struct.tsd_binshards_s = type { [39 x i8] }
%struct.tsd_link_t = type { ptr, ptr }
%struct.peak_s = type { i64, i64 }
%struct.activity_callback_thunk_s = type { ptr, ptr }
%struct.tcache_slow_s = type { %struct.anon.7, %struct.cache_bin_array_descriptor_s, ptr, i32, [39 x i8], [39 x i8], [39 x i8], ptr, ptr }
%struct.anon.7 = type { ptr, ptr }
%struct.cache_bin_array_descriptor_s = type { %struct.anon.8, ptr }
%struct.anon.8 = type { ptr, ptr }
%struct.atomic_u8_t = type { i8 }
%struct.tcache_s = type { ptr, [76 x %struct.cache_bin_s] }
%struct.cache_bin_s = type { ptr, %struct.cache_bin_stats_s, i16, i16, i16 }
%struct.cache_bin_stats_s = type { i64 }
%struct.witness_tsd_s = type { %struct.witness_list_t, i8 }
%struct.witness_list_t = type { ptr }

; Function Attrs: alwaysinline nounwind uwtable
define internal i32 @atomic_enum_to_builtin(i32 noundef %0) #3 {
  %2 = alloca i32, align 4
  %3 = alloca i32, align 4
  store i32 %0, ptr %3, align 4, !tbaa !19
  %4 = load i32, ptr %3, align 4, !tbaa !19
  switch i32 %4, label %10 [
    i32 0, label %5
    i32 1, label %6
    i32 2, label %7
    i32 3, label %8
    i32 4, label %9
  ]

5:                                                ; preds = %1
  store i32 0, ptr %2, align 4
  br label %12

6:                                                ; preds = %1
  store i32 2, ptr %2, align 4
  br label %12

7:                                                ; preds = %1
  store i32 3, ptr %2, align 4
  br label %12

8:                                                ; preds = %1
  store i32 4, ptr %2, align 4
  br label %12

9:                                                ; preds = %1
  store i32 5, ptr %2, align 4
  br label %12

10:                                               ; preds = %1
  br label %11

11:                                               ; preds = %10
  unreachable

12:                                               ; preds = %5, %6, %7, %8, %9
  %13 = load i32, ptr %2, align 4
  ret i32 %13
}

; Function Attrs: alwaysinline nounwind uwtable
define internal void @atomic_store_p(ptr noundef %0, ptr noundef %1, i32 noundef %2) #3 {
  %4 = alloca ptr, align 8
  %5 = alloca ptr, align 8
  %6 = alloca i32, align 4
  store ptr %0, ptr %4, align 8, !tbaa !43
  store ptr %1, ptr %5, align 8, !tbaa !43
  store i32 %2, ptr %6, align 4, !tbaa !19
  %7 = load ptr, ptr %4, align 8, !tbaa !43
  %8 = getelementptr inbounds nuw %struct.atomic_p_t, ptr %7, i32 0, i32 0
  %9 = load i32, ptr %6, align 4, !tbaa !19
  %10 = call i32 @atomic_enum_to_builtin(i32 noundef %9)
  switch i32 %10, label %11 [
    i32 3, label %13
    i32 5, label %15
  ]

11:                                               ; preds = %3
  %12 = load i64, ptr %5, align 8
  store atomic i64 %12, ptr %8 monotonic, align 8
  br label %17

13:                                               ; preds = %3
  %14 = load i64, ptr %5, align 8
  store atomic i64 %14, ptr %8 release, align 8
  br label %17

15:                                               ; preds = %3
  %16 = load i64, ptr %5, align 8
  store atomic i64 %16, ptr %8 seq_cst, align 8
  br label %17

17:                                               ; preds = %15, %13, %11
  ret void
}

; Function Attrs: alwaysinline nounwind uwtable
define internal i64 @rtree_leaf_elm_bits_encode(ptr noundef byval(%struct.rtree_contents_s) align 8 %0) #3 {
  %2 = alloca i64, align 8
  %3 = alloca i64, align 8
  %4 = alloca i64, align 8
  %5 = alloca i64, align 8
  %6 = alloca i64, align 8
  %7 = alloca i64, align 8
  br label %8

8:                                                ; preds = %1
  br label %9

9:                                                ; preds = %8
  call void @llvm.lifetime.start.p0(i64 8, ptr %2) #8
  %10 = getelementptr inbounds nuw %struct.rtree_contents_s, ptr %0, i32 0, i32 0
  %11 = load ptr, ptr %10, align 8, !tbaa !44
  %12 = ptrtoint ptr %11 to i64
  %13 = and i64 %12, 281474976710655
  store i64 %13, ptr %2, align 8, !tbaa !35
  call void @llvm.lifetime.start.p0(i64 8, ptr %3) #8
  %14 = getelementptr inbounds nuw %struct.rtree_contents_s, ptr %0, i32 0, i32 1
  %15 = getelementptr inbounds nuw %struct.rtree_metadata_s, ptr %14, i32 0, i32 0
  %16 = load i32, ptr %15, align 8, !tbaa !49
  %17 = zext i32 %16 to i64
  %18 = shl i64 %17, 48
  store i64 %18, ptr %3, align 8, !tbaa !35
  call void @llvm.lifetime.start.p0(i64 8, ptr %4) #8
  %19 = getelementptr inbounds nuw %struct.rtree_contents_s, ptr %0, i32 0, i32 1
  %20 = getelementptr inbounds nuw %struct.rtree_metadata_s, ptr %19, i32 0, i32 3
  %21 = load i8, ptr %20, align 1, !tbaa !50, !range !13, !noundef !14
  %22 = trunc i8 %21 to i1
  %23 = zext i1 %22 to i64
  store i64 %23, ptr %4, align 8, !tbaa !35
  call void @llvm.lifetime.start.p0(i64 8, ptr %5) #8
  %24 = getelementptr inbounds nuw %struct.rtree_contents_s, ptr %0, i32 0, i32 1
  %25 = getelementptr inbounds nuw %struct.rtree_metadata_s, ptr %24, i32 0, i32 2
  %26 = load i8, ptr %25, align 8, !tbaa !51, !range !13, !noundef !14
  %27 = trunc i8 %26 to i1
  %28 = zext i1 %27 to i64
  %29 = shl i64 %28, 1
  store i64 %29, ptr %5, align 8, !tbaa !35
  call void @llvm.lifetime.start.p0(i64 8, ptr %6) #8
  %30 = getelementptr inbounds nuw %struct.rtree_contents_s, ptr %0, i32 0, i32 1
  %31 = getelementptr inbounds nuw %struct.rtree_metadata_s, ptr %30, i32 0, i32 1
  %32 = load i32, ptr %31, align 4, !tbaa !52
  %33 = zext i32 %32 to i64
  %34 = shl i64 %33, 2
  store i64 %34, ptr %6, align 8, !tbaa !35
  call void @llvm.lifetime.start.p0(i64 8, ptr %7) #8
  %35 = load i64, ptr %3, align 8, !tbaa !35
  %36 = load i64, ptr %6, align 8, !tbaa !35
  %37 = or i64 %35, %36
  %38 = load i64, ptr %5, align 8, !tbaa !35
  %39 = or i64 %37, %38
  %40 = load i64, ptr %4, align 8, !tbaa !35
  %41 = or i64 %39, %40
  store i64 %41, ptr %7, align 8, !tbaa !35
  br label %42

42:                                               ; preds = %9
  br label %43

43:                                               ; preds = %42
  br label %44

44:                                               ; preds = %43
  %45 = load i64, ptr %2, align 8, !tbaa !35
  %46 = load i64, ptr %7, align 8, !tbaa !35
  %47 = or i64 %45, %46
  call void @llvm.lifetime.end.p0(i64 8, ptr %7) #8
  call void @llvm.lifetime.end.p0(i64 8, ptr %6) #8
  call void @llvm.lifetime.end.p0(i64 8, ptr %5) #8
  call void @llvm.lifetime.end.p0(i64 8, ptr %4) #8
  call void @llvm.lifetime.end.p0(i64 8, ptr %3) #8
  call void @llvm.lifetime.end.p0(i64 8, ptr %2) #8
  ret i64 %47
}

; Function Attrs: alwaysinline nounwind uwtable
define internal ptr @tsd_rtree_ctxp_get_unsafe(ptr noundef %0) #3 {
  %2 = alloca ptr, align 8
  store ptr %0, ptr %2, align 8, !tbaa !27
  %3 = load ptr, ptr %2, align 8, !tbaa !27
  %4 = getelementptr inbounds nuw %struct.tsd_s, ptr %3, i32 0, i32 28
  ret ptr %4
}

; Function Attrs: alwaysinline nounwind uwtable
define internal void @rtree_leaf_elm_write_commit(ptr noundef %0, ptr noundef %1, ptr noundef %2, ptr noundef %3, i32 noundef %4) #3 {
  %6 = alloca ptr, align 8
  %7 = alloca ptr, align 8
  %8 = alloca ptr, align 8
  %9 = alloca ptr, align 8
  %10 = alloca i32, align 4
  store ptr %0, ptr %6, align 8, !tbaa !15
  store ptr %1, ptr %7, align 8, !tbaa !33
  store ptr %2, ptr %8, align 8, !tbaa !23
  store ptr %3, ptr %9, align 8, !tbaa !43
  store i32 %4, ptr %10, align 4, !tbaa !19
  %11 = load ptr, ptr %8, align 8, !tbaa !23
  %12 = getelementptr inbounds nuw %struct.rtree_leaf_elm_s, ptr %11, i32 0, i32 0
  %13 = load ptr, ptr %9, align 8, !tbaa !43
  call void @atomic_store_p(ptr noundef %12, ptr noundef %13, i32 noundef 2)
  ret void
}

; Function Attrs: alwaysinline nounwind uwtable
define internal void @rtree_contents_encode(ptr noundef byval(%struct.rtree_contents_s) align 8 %0, ptr noundef %1, ptr noundef %2) #3 {
  %4 = alloca ptr, align 8
  %5 = alloca ptr, align 8
  store ptr %1, ptr %4, align 8, !tbaa !43
  store ptr %2, ptr %5, align 8, !tbaa !70
  %6 = call i64 @rtree_leaf_elm_bits_encode(ptr noundef byval(%struct.rtree_contents_s) align 8 %0)
  %7 = inttoptr i64 %6 to ptr
  %8 = load ptr, ptr %4, align 8, !tbaa !43
  store ptr %7, ptr %8, align 8, !tbaa !43
  ret void
}

; Function Attrs: alwaysinline nounwind uwtable
define internal ptr @tsd_rtree_ctxp_get(ptr noundef %0) #3 {
  %2 = alloca ptr, align 8
  %3 = alloca i8, align 1
  store ptr %0, ptr %2, align 8, !tbaa !27
  call void @llvm.lifetime.start.p0(i64 1, ptr %3) #8
  %4 = load ptr, ptr %2, align 8, !tbaa !27
  %5 = call zeroext i8 @tsd_state_get(ptr noundef %4)
  store i8 %5, ptr %3, align 1, !tbaa !42
  br label %6

6:                                                ; preds = %1
  br label %7

7:                                                ; preds = %6
  br label %8

8:                                                ; preds = %7
  %9 = load ptr, ptr %2, align 8, !tbaa !27
  %10 = call ptr @tsd_rtree_ctxp_get_unsafe(ptr noundef %9)
  call void @llvm.lifetime.end.p0(i64 1, ptr %3) #8
  ret ptr %10
}

; Function Attrs: alwaysinline nounwind uwtable
define internal ptr @tsd_witness_tsdp_get_unsafe(ptr noundef %0) #3 {
  %2 = alloca ptr, align 8
  store ptr %0, ptr %2, align 8, !tbaa !27
  %3 = load ptr, ptr %2, align 8, !tbaa !27
  %4 = getelementptr inbounds nuw %struct.tsd_s, ptr %3, i32 0, i32 35
  ret ptr %4
}

; Function Attrs: alwaysinline nounwind uwtable
define internal zeroext i8 @tsd_state_get(ptr noundef %0) #3 {
  %2 = alloca ptr, align 8
  store ptr %0, ptr %2, align 8, !tbaa !27
  %3 = load ptr, ptr %2, align 8, !tbaa !27
  %4 = getelementptr inbounds nuw %struct.tsd_s, ptr %3, i32 0, i32 29
  %5 = load i8, ptr %4, align 8, !tbaa !42
  ret i8 %5
}

; Function Attrs: alwaysinline nounwind uwtable
define internal void @rtree_leaf_elm_write(ptr noundef %0, ptr noundef %1, ptr noundef %2, ptr noundef byval(%struct.rtree_contents_s) align 8 %3) #3 {
  %5 = alloca ptr, align 8
  %6 = alloca ptr, align 8
  %7 = alloca ptr, align 8
  %8 = alloca ptr, align 8
  %9 = alloca i32, align 4
  store ptr %0, ptr %5, align 8, !tbaa !15
  store ptr %1, ptr %6, align 8, !tbaa !33
  store ptr %2, ptr %7, align 8, !tbaa !23
  br label %10

10:                                               ; preds = %4
  br label %11

11:                                               ; preds = %10
  call void @llvm.lifetime.start.p0(i64 8, ptr %8) #8
  call void @llvm.lifetime.start.p0(i64 4, ptr %9) #8
  call void @rtree_contents_encode(ptr noundef byval(%struct.rtree_contents_s) align 8 %3, ptr noundef %8, ptr noundef %9)
  %12 = load ptr, ptr %5, align 8, !tbaa !15
  %13 = load ptr, ptr %6, align 8, !tbaa !33
  %14 = load ptr, ptr %7, align 8, !tbaa !23
  %15 = load ptr, ptr %8, align 8, !tbaa !43
  %16 = load i32, ptr %9, align 4, !tbaa !19
  call void @rtree_leaf_elm_write_commit(ptr noundef %12, ptr noundef %13, ptr noundef %14, ptr noundef %15, i32 noundef %16)
  call void @llvm.lifetime.end.p0(i64 4, ptr %9) #8
  call void @llvm.lifetime.end.p0(i64 8, ptr %8) #8
  ret void
}

; Function Attrs: inlinehint nounwind uwtable
define internal i32 @edata_state_get(ptr noundef %0) #2 {
  %2 = alloca ptr, align 8
  store ptr %0, ptr %2, align 8, !tbaa !17
  %3 = load ptr, ptr %2, align 8, !tbaa !17
  %4 = getelementptr inbounds nuw %struct.edata_s, ptr %3, i32 0, i32 0
  %5 = load i64, ptr %4, align 8, !tbaa !29
  %6 = and i64 %5, 917504
  %7 = lshr i64 %6, 17
  %8 = trunc i64 %7 to i32
  ret i32 %8
}

; Function Attrs: inlinehint nounwind uwtable
define internal zeroext i1 @edata_is_head_get(ptr noundef %0) #2 {
  %2 = alloca ptr, align 8
  store ptr %0, ptr %2, align 8, !tbaa !17
  %3 = load ptr, ptr %2, align 8, !tbaa !17
  %4 = getelementptr inbounds nuw %struct.edata_s, ptr %3, i32 0, i32 0
  %5 = load i64, ptr %4, align 8, !tbaa !29
  %6 = and i64 %5, 17592186044416
  %7 = lshr i64 %6, 44
  %8 = icmp ne i64 %7, 0
  ret i1 %8
}

; Function Attrs: alwaysinline nounwind uwtable
define internal ptr @tsd_rtree_ctx(ptr noundef %0) #3 {
  %2 = alloca ptr, align 8
  store ptr %0, ptr %2, align 8, !tbaa !27
  %3 = load ptr, ptr %2, align 8, !tbaa !27
  %4 = call ptr @tsd_rtree_ctxp_get(ptr noundef %3)
  ret ptr %4
}

; Function Attrs: alwaysinline nounwind uwtable
define internal ptr @tsd_witness_tsdp_get(ptr noundef %0) #3 {
  %2 = alloca ptr, align 8
  %3 = alloca i8, align 1
  store ptr %0, ptr %2, align 8, !tbaa !27
  call void @llvm.lifetime.start.p0(i64 1, ptr %3) #8
  %4 = load ptr, ptr %2, align 8, !tbaa !27
  %5 = call zeroext i8 @tsd_state_get(ptr noundef %4)
  store i8 %5, ptr %3, align 1, !tbaa !42
  br label %6

6:                                                ; preds = %1
  br label %7

7:                                                ; preds = %6
  br label %8

8:                                                ; preds = %7
  %9 = load ptr, ptr %2, align 8, !tbaa !27
  %10 = call ptr @tsd_witness_tsdp_get_unsafe(ptr noundef %9)
  call void @llvm.lifetime.end.p0(i64 1, ptr %3) #8
  ret ptr %10
}

; Function Attrs: alwaysinline nounwind uwtable
define internal ptr @tsdn_tsd(ptr noundef %0) #3 {
  %2 = alloca ptr, align 8
  store ptr %0, ptr %2, align 8, !tbaa !15
  br label %3

3:                                                ; preds = %1
  br label %4

4:                                                ; preds = %3
  %5 = load ptr, ptr %2, align 8, !tbaa !15
  %6 = getelementptr inbounds nuw %struct.tsdn_s, ptr %5, i32 0, i32 0
  ret ptr %6
}

; Function Attrs: alwaysinline nounwind uwtable
define internal zeroext i1 @tsdn_null(ptr noundef %0) #3 {
  %2 = alloca ptr, align 8
  store ptr %0, ptr %2, align 8, !tbaa !15
  %3 = load ptr, ptr %2, align 8, !tbaa !15
  %4 = icmp eq ptr %3, null
  ret i1 %4
}

; Function Attrs: nounwind uwtable
define internal void @emap_rtree_write_acquired(ptr noundef %0, ptr noundef %1, ptr noundef %2, ptr noundef %3, ptr noundef %4, i32 noundef %5, i1 noundef zeroext %6) #0 {
  %8 = alloca ptr, align 8
  %9 = alloca ptr, align 8
  %10 = alloca ptr, align 8
  %11 = alloca ptr, align 8
  %12 = alloca ptr, align 8
  %13 = alloca i32, align 4
  %14 = alloca i8, align 1
  %15 = alloca %struct.rtree_contents_s, align 8
  store ptr %0, ptr %8, align 8, !tbaa !15
  store ptr %1, ptr %9, align 8, !tbaa !4
  store ptr %2, ptr %10, align 8, !tbaa !23
  store ptr %3, ptr %11, align 8, !tbaa !23
  store ptr %4, ptr %12, align 8, !tbaa !17
  store i32 %5, ptr %13, align 4, !tbaa !19
  %16 = zext i1 %6 to i8
  store i8 %16, ptr %14, align 1, !tbaa !11
  call void @llvm.lifetime.start.p0(i64 24, ptr %15) #8
  %17 = load ptr, ptr %12, align 8, !tbaa !17
  %18 = getelementptr inbounds nuw %struct.rtree_contents_s, ptr %15, i32 0, i32 0
  store ptr %17, ptr %18, align 8, !tbaa !44
  %19 = load i32, ptr %13, align 4, !tbaa !19
  %20 = getelementptr inbounds nuw %struct.rtree_contents_s, ptr %15, i32 0, i32 1
  %21 = getelementptr inbounds nuw %struct.rtree_metadata_s, ptr %20, i32 0, i32 0
  store i32 %19, ptr %21, align 8, !tbaa !49
  %22 = load i8, ptr %14, align 1, !tbaa !11, !range !13, !noundef !14
  %23 = trunc i8 %22 to i1
  %24 = getelementptr inbounds nuw %struct.rtree_contents_s, ptr %15, i32 0, i32 1
  %25 = getelementptr inbounds nuw %struct.rtree_metadata_s, ptr %24, i32 0, i32 3
  %26 = zext i1 %23 to i8
  store i8 %26, ptr %25, align 1, !tbaa !50
  %27 = load ptr, ptr %12, align 8, !tbaa !17
  %28 = icmp eq ptr %27, null
  br i1 %28, label %29, label %30

29:                                               ; preds = %7
  br label %34

30:                                               ; preds = %7
  %31 = load ptr, ptr %12, align 8, !tbaa !17
  %32 = call zeroext i1 @edata_is_head_get(ptr noundef %31)
  %33 = zext i1 %32 to i32
  br label %34

34:                                               ; preds = %30, %29
  %35 = phi i32 [ 0, %29 ], [ %33, %30 ]
  %36 = icmp ne i32 %35, 0
  %37 = getelementptr inbounds nuw %struct.rtree_contents_s, ptr %15, i32 0, i32 1
  %38 = getelementptr inbounds nuw %struct.rtree_metadata_s, ptr %37, i32 0, i32 2
  %39 = zext i1 %36 to i8
  store i8 %39, ptr %38, align 8, !tbaa !51
  %40 = load ptr, ptr %12, align 8, !tbaa !17
  %41 = icmp eq ptr %40, null
  br i1 %41, label %42, label %43

42:                                               ; preds = %34
  br label %46

43:                                               ; preds = %34
  %44 = load ptr, ptr %12, align 8, !tbaa !17
  %45 = call i32 @edata_state_get(ptr noundef %44)
  br label %46

46:                                               ; preds = %43, %42
  %47 = phi i32 [ 0, %42 ], [ %45, %43 ]
  %48 = getelementptr inbounds nuw %struct.rtree_contents_s, ptr %15, i32 0, i32 1
  %49 = getelementptr inbounds nuw %struct.rtree_metadata_s, ptr %48, i32 0, i32 1
  store i32 %47, ptr %49, align 4, !tbaa !52
  %50 = load ptr, ptr %8, align 8, !tbaa !15
  %51 = load ptr, ptr %9, align 8, !tbaa !4
  %52 = getelementptr inbounds nuw %struct.emap_s, ptr %51, i32 0, i32 0
  %53 = load ptr, ptr %10, align 8, !tbaa !23
  call void @rtree_leaf_elm_write(ptr noundef %50, ptr noundef %52, ptr noundef %53, ptr noundef byval(%struct.rtree_contents_s) align 8 %15)
  %54 = load ptr, ptr %11, align 8, !tbaa !23
  %55 = icmp ne ptr %54, null
  br i1 %55, label %56, label %61

56:                                               ; preds = %46
  %57 = load ptr, ptr %8, align 8, !tbaa !15
  %58 = load ptr, ptr %9, align 8, !tbaa !4
  %59 = getelementptr inbounds nuw %struct.emap_s, ptr %58, i32 0, i32 0
  %60 = load ptr, ptr %11, align 8, !tbaa !23
  call void @rtree_leaf_elm_write(ptr noundef %57, ptr noundef %59, ptr noundef %60, ptr noundef byval(%struct.rtree_contents_s) align 8 %15)
  br label %61

61:                                               ; preds = %56, %46
  call void @llvm.lifetime.end.p0(i64 24, ptr %15) #8
  ret void
}

; Function Attrs: alwaysinline nounwind uwtable
define internal ptr @tsdn_rtree_ctx(ptr noundef %0, ptr noundef %1) #3 {
  %3 = alloca ptr, align 8
  %4 = alloca ptr, align 8
  %5 = alloca ptr, align 8
  store ptr %0, ptr %4, align 8, !tbaa !15
  store ptr %1, ptr %5, align 8, !tbaa !21
  %6 = load ptr, ptr %4, align 8, !tbaa !15
  %7 = call zeroext i1 @tsdn_null(ptr noundef %6)
  %8 = xor i1 %7, true
  %9 = xor i1 %8, true
  %10 = zext i1 %9 to i32
  %11 = sext i32 %10 to i64
  %12 = call i64 @llvm.expect.i64(i64 %11, i64 0)
  %13 = icmp ne i64 %12, 0
  br i1 %13, label %14, label %17

14:                                               ; preds = %2
  %15 = load ptr, ptr %5, align 8, !tbaa !21
  call void @je_rtree_ctx_data_init(ptr noundef %15)
  %16 = load ptr, ptr %5, align 8, !tbaa !21
  store ptr %16, ptr %3, align 8
  br label %21

17:                                               ; preds = %2
  %18 = load ptr, ptr %4, align 8, !tbaa !15
  %19 = call ptr @tsdn_tsd(ptr noundef %18)
  %20 = call ptr @tsd_rtree_ctx(ptr noundef %19)
  store ptr %20, ptr %3, align 8
  br label %21

21:                                               ; preds = %17, %14
  %22 = load ptr, ptr %3, align 8
  ret ptr %22
}

; Function Attrs: inlinehint nounwind uwtable
define internal void @witness_assert_positive_depth_to_rank(ptr noundef %0, i32 noundef %1) #2 {
  %3 = alloca ptr, align 8
  %4 = alloca i32, align 4
  store ptr %0, ptr %3, align 8, !tbaa !25
  store i32 %1, ptr %4, align 4, !tbaa !19
  ret void
}

; Function Attrs: alwaysinline nounwind uwtable
define internal ptr @tsdn_witness_tsdp_get(ptr noundef %0) #3 {
  %2 = alloca ptr, align 8
  %3 = alloca ptr, align 8
  %4 = alloca ptr, align 8
  store ptr %0, ptr %3, align 8, !tbaa !15
  %5 = load ptr, ptr %3, align 8, !tbaa !15
  %6 = call zeroext i1 @tsdn_null(ptr noundef %5)
  br i1 %6, label %7, label %8

7:                                                ; preds = %1
  store ptr null, ptr %2, align 8
  br label %13

8:                                                ; preds = %1
  call void @llvm.lifetime.start.p0(i64 8, ptr %4) #8
  %9 = load ptr, ptr %3, align 8, !tbaa !15
  %10 = call ptr @tsdn_tsd(ptr noundef %9)
  store ptr %10, ptr %4, align 8, !tbaa !27
  %11 = load ptr, ptr %4, align 8, !tbaa !27
  %12 = call ptr @tsd_witness_tsdp_get(ptr noundef %11)
  store ptr %12, ptr %2, align 8
  call void @llvm.lifetime.end.p0(i64 8, ptr %4) #8
  br label %13

13:                                               ; preds = %8, %7
  %14 = load ptr, ptr %2, align 8
  ret ptr %14
}

; Function Attrs: alwaysinline nounwind uwtable
define internal zeroext i1 @emap_edata_is_acquired(ptr noundef %0, ptr noundef %1, ptr noundef %2) #3 {
  %4 = alloca ptr, align 8
  %5 = alloca ptr, align 8
  %6 = alloca ptr, align 8
  store ptr %0, ptr %4, align 8, !tbaa !15
  store ptr %1, ptr %5, align 8, !tbaa !4
  store ptr %2, ptr %6, align 8, !tbaa !17
  ret i1 false
}

; Function Attrs: nounwind uwtable
define hidden void @je_emap_deregister_boundary(ptr noundef %0, ptr noundef %1, ptr noundef %2) #0 {
  %4 = alloca ptr, align 8
  %5 = alloca ptr, align 8
  %6 = alloca ptr, align 8
  %7 = alloca %struct.rtree_ctx_s, align 8
  %8 = alloca ptr, align 8
  %9 = alloca ptr, align 8
  %10 = alloca ptr, align 8
  store ptr %0, ptr %4, align 8, !tbaa !15
  store ptr %1, ptr %5, align 8, !tbaa !4
  store ptr %2, ptr %6, align 8, !tbaa !17
  %11 = load ptr, ptr %4, align 8, !tbaa !15
  %12 = load ptr, ptr %5, align 8, !tbaa !4
  %13 = load ptr, ptr %6, align 8, !tbaa !17
  %14 = call zeroext i1 @emap_edata_is_acquired(ptr noundef %11, ptr noundef %12, ptr noundef %13)
  br i1 %14, label %18, label %15

15:                                               ; preds = %3
  %16 = load ptr, ptr %4, align 8, !tbaa !15
  %17 = call ptr @tsdn_witness_tsdp_get(ptr noundef %16)
  call void @witness_assert_positive_depth_to_rank(ptr noundef %17, i32 noundef 14)
  br label %18

18:                                               ; preds = %15, %3
  call void @llvm.lifetime.start.p0(i64 384, ptr %7) #8
  call void @llvm.lifetime.start.p0(i64 8, ptr %8) #8
  %19 = load ptr, ptr %4, align 8, !tbaa !15
  %20 = call ptr @tsdn_rtree_ctx(ptr noundef %19, ptr noundef %7)
  store ptr %20, ptr %8, align 8, !tbaa !21
  call void @llvm.lifetime.start.p0(i64 8, ptr %9) #8
  call void @llvm.lifetime.start.p0(i64 8, ptr %10) #8
  %21 = load ptr, ptr %4, align 8, !tbaa !15
  %22 = load ptr, ptr %5, align 8, !tbaa !4
  %23 = load ptr, ptr %8, align 8, !tbaa !21
  %24 = load ptr, ptr %6, align 8, !tbaa !17
  %25 = call zeroext i1 @emap_rtree_leaf_elms_lookup(ptr noundef %21, ptr noundef %22, ptr noundef %23, ptr noundef %24, i1 noundef zeroext true, i1 noundef zeroext false, ptr noundef %9, ptr noundef %10)
  %26 = load ptr, ptr %4, align 8, !tbaa !15
  %27 = load ptr, ptr %5, align 8, !tbaa !4
  %28 = load ptr, ptr %9, align 8, !tbaa !23
  %29 = load ptr, ptr %10, align 8, !tbaa !23
  call void @emap_rtree_write_acquired(ptr noundef %26, ptr noundef %27, ptr noundef %28, ptr noundef %29, ptr noundef null, i32 noundef 235, i1 noundef zeroext false)
  call void @llvm.lifetime.end.p0(i64 8, ptr %10) #8
  call void @llvm.lifetime.end.p0(i64 8, ptr %9) #8
  call void @llvm.lifetime.end.p0(i64 8, ptr %8) #8
  call void @llvm.lifetime.end.p0(i64 384, ptr %7) #8
  ret void
}